target datalayout = "e-m:e-p270:32:32-p271:32:32-p272:64:64-i64:64-i128:128-f80:128-n8:16:32:64-S128"
target triple = "x86_64-pc-linux-gnu"

%"class.std::__1::__thread_struct" = type { ptr }

@_ZNSt3__119__thread_struct_impD1Ev = hidden unnamed_addr alias void (ptr), ptr @_ZNSt3__119__thread_struct_impD2Ev

; Function Attrs: mustprogress nounwind uwtable
define dso_local void @_ZNSt3__115__thread_structD2Ev(ptr noundef nonnull align 8 dereferenceable(8) %0) unnamed_addr #0 align 2 {
  %2 = alloca ptr, align 8
  store ptr %0, ptr %2, align 8, !tbaa !74
  %3 = load ptr, ptr %2, align 8
  %4 = getelementptr inbounds nuw %"class.std::__1::__thread_struct", ptr %3, i32 0, i32 0
  %5 = load ptr, ptr %4, align 8, !tbaa !76
  %6 = icmp eq ptr %5, null
  br i1 %6, label %8, label %7

7:                                                ; preds = %1
  call void @_ZNSt3__119__thread_struct_impD1Ev(ptr noundef nonnull align 8 dereferenceable(48) %5) #8
  call void @_ZdlPvm(ptr noundef %5, i64 noundef 48) #21
  br label %8

8:                                                ; preds = %7, %1
  ret void
}