; Function Attrs: mustprogress nounwind uwtable
define dso_local void @_ZNSt3__115__thread_structD2Ev(ptr noundef nonnull readonly align 8 captures(none) dereferenceable(8) %0) unnamed_addr #6 align 2 {
  %2 = load ptr, ptr %0, align 8, !tbaa !47
  %3 = icmp eq ptr %2, null
  br i1 %3, label %5, label %4

4:                                                ; preds = %1
  tail call void @_ZNSt3__119__thread_struct_impD2Ev(ptr noundef nonnull align 8 dereferenceable(48) %2) #21
  tail call void @_ZdlPvm(ptr noundef nonnull %2, i64 noundef 48) #26
  br label %5

5:                                                ; preds = %4, %1
  ret void
}